; ModuleID = '27/1535.c'
source_filename = "27/1535.c"
target datalayout = "e-m:e-p270:32:32-p271:32:32-p272:64:64-i64:64-f80:128-n8:16:32:64-S128"
target triple = "x86_64-pc-linux-gnu"

@.str = private unnamed_addr constant [3 x i8] c"%d\00", align 1
@.str.1 = private unnamed_addr constant [10 x i8] c"%lf%lf%lf\00", align 1
@.str.2 = private unnamed_addr constant [19 x i8] c"x1=%.5lf;x2=%.5lf\0A\00", align 1
@.str.3 = private unnamed_addr constant [13 x i8] c"x1=x2=%.5lf\0A\00", align 1
@.str.4 = private unnamed_addr constant [36 x i8] c"x1=0.00000+%.5lfi;x2=0.00000%.5lfi\0A\00", align 1
@.str.5 = private unnamed_addr constant [32 x i8] c"x1=%.5lf+%.5lfi;x2=%.5lf%.5lfi\0A\00", align 1

; Function Attrs: noinline nounwind uwtable
define dso_local i32 @main() #0 {
  %1 = alloca i32, align 4
  %2 = alloca i32, align 4
  %3 = alloca i32, align 4
  %4 = alloca double, align 8
  %5 = alloca double, align 8
  %6 = alloca double, align 8
  store i32 0, i32* %1, align 4
  %7 = call i32 (i8*, ...) @__isoc99_scanf(i8* getelementptr inbounds ([3 x i8], [3 x i8]* @.str, i64 0, i64 0), i32* %2)
  store i32 0, i32* %3, align 4
  br label %8

8:                                                ; preds = %154, %0
  %9 = load i32, i32* %3, align 4
  %10 = load i32, i32* %2, align 4
  %11 = icmp slt i32 %9, %10
  br i1 %11, label %12, label %157

12:                                               ; preds = %8
  %13 = call i32 (i8*, ...) @__isoc99_scanf(i8* getelementptr inbounds ([10 x i8], [10 x i8]* @.str.1, i64 0, i64 0), double* %4, double* %5, double* %6)
  %14 = load double, double* %5, align 8
  %15 = load double, double* %5, align 8
  %16 = fmul double %14, %15
  %17 = load double, double* %4, align 8
  %18 = fmul double 4.000000e+00, %17
  %19 = load double, double* %6, align 8
  %20 = fmul double %18, %19
  %21 = fcmp ogt double %16, %20
  br i1 %21, label %22, label %54

22:                                               ; preds = %12
  %23 = load double, double* %5, align 8
  %24 = fneg double %23
  %25 = load double, double* %5, align 8
  %26 = load double, double* %5, align 8
  %27 = fmul double %25, %26
  %28 = load double, double* %4, align 8
  %29 = fmul double 4.000000e+00, %28
  %30 = load double, double* %6, align 8
  %31 = fmul double %29, %30
  %32 = fsub double %27, %31
  %33 = call double @sqrt(double %32) #3
  %34 = fadd double %24, %33
  %35 = load double, double* %4, align 8
  %36 = fmul double 2.000000e+00, %35
  %37 = fdiv double %34, %36
  %38 = load double, double* %5, align 8
  %39 = fneg double %38
  %40 = load double, double* %5, align 8
  %41 = load double, double* %5, align 8
  %42 = fmul double %40, %41
  %43 = load double, double* %4, align 8
  %44 = fmul double 4.000000e+00, %43
  %45 = load double, double* %6, align 8
  %46 = fmul double %44, %45
  %47 = fsub double %42, %46
  %48 = call double @sqrt(double %47) #3
  %49 = fsub double %39, %48
  %50 = load double, double* %4, align 8
  %51 = fmul double 2.000000e+00, %50
  %52 = fdiv double %49, %51
  %53 = call i32 (i8*, ...) @printf(i8* getelementptr inbounds ([19 x i8], [19 x i8]* @.str.2, i64 0, i64 0), double %37, double %52)
  br label %153

54:                                               ; preds = %12
  %55 = load double, double* %5, align 8
  %56 = load double, double* %5, align 8
  %57 = fmul double %55, %56
  %58 = load double, double* %4, align 8
  %59 = fmul double 4.000000e+00, %58
  %60 = load double, double* %6, align 8
  %61 = fmul double %59, %60
  %62 = fcmp oeq double %57, %61
  br i1 %62, label %63, label %80

63:                                               ; preds = %54
  %64 = load double, double* %5, align 8
  %65 = fneg double %64
  %66 = load double, double* %5, align 8
  %67 = load double, double* %5, align 8
  %68 = fmul double %66, %67
  %69 = load double, double* %4, align 8
  %70 = fmul double 4.000000e+00, %69
  %71 = load double, double* %6, align 8
  %72 = fmul double %70, %71
  %73 = fsub double %68, %72
  %74 = call double @sqrt(double %73) #3
  %75 = fadd double %65, %74
  %76 = load double, double* %4, align 8
  %77 = fmul double 2.000000e+00, %76
  %78 = fdiv double %75, %77
  %79 = call i32 (i8*, ...) @printf(i8* getelementptr inbounds ([13 x i8], [13 x i8]* @.str.3, i64 0, i64 0), double %78)
  br label %152

80:                                               ; preds = %54
  %81 = load double, double* %5, align 8
  %82 = fcmp oeq double %81, 0.000000e+00
  br i1 %82, label %83, label %112

83:                                               ; preds = %80
  %84 = load double, double* %5, align 8
  %85 = fneg double %84
  %86 = load double, double* %5, align 8
  %87 = fmul double %85, %86
  %88 = load double, double* %4, align 8
  %89 = fmul double 4.000000e+00, %88
  %90 = load double, double* %6, align 8
  %91 = fmul double %89, %90
  %92 = fadd double %87, %91
  %93 = call double @sqrt(double %92) #3
  %94 = load double, double* %4, align 8
  %95 = fmul double 2.000000e+00, %94
  %96 = fdiv double %93, %95
  %97 = load double, double* %5, align 8
  %98 = fneg double %97
  %99 = load double, double* %5, align 8
  %100 = fmul double %98, %99
  %101 = load double, double* %4, align 8
  %102 = fmul double 4.000000e+00, %101
  %103 = load double, double* %6, align 8
  %104 = fmul double %102, %103
  %105 = fadd double %100, %104
  %106 = call double @sqrt(double %105) #3
  %107 = fneg double %106
  %108 = load double, double* %4, align 8
  %109 = fmul double 2.000000e+00, %108
  %110 = fdiv double %107, %109
  %111 = call i32 (i8*, ...) @printf(i8* getelementptr inbounds ([36 x i8], [36 x i8]* @.str.4, i64 0, i64 0), double %96, double %110)
  br label %151

112:                                              ; preds = %80
  %113 = load double, double* %5, align 8
  %114 = fneg double %113
  %115 = load double, double* %4, align 8
  %116 = fmul double 2.000000e+00, %115
  %117 = fdiv double %114, %116
  %118 = load double, double* %5, align 8
  %119 = fneg double %118
  %120 = load double, double* %5, align 8
  %121 = fmul double %119, %120
  %122 = load double, double* %4, align 8
  %123 = fmul double 4.000000e+00, %122
  %124 = load double, double* %6, align 8
  %125 = fmul double %123, %124
  %126 = fadd double %121, %125
  %127 = call double @sqrt(double %126) #3
  %128 = load double, double* %4, align 8
  %129 = fmul double 2.000000e+00, %128
  %130 = fdiv double %127, %129
  %131 = load double, double* %5, align 8
  %132 = fneg double %131
  %133 = load double, double* %4, align 8
  %134 = fmul double 2.000000e+00, %133
  %135 = fdiv double %132, %134
  %136 = load double, double* %5, align 8
  %137 = fneg double %136
  %138 = load double, double* %5, align 8
  %139 = fmul double %137, %138
  %140 = load double, double* %4, align 8
  %141 = fmul double 4.000000e+00, %140
  %142 = load double, double* %6, align 8
  %143 = fmul double %141, %142
  %144 = fadd double %139, %143
  %145 = call double @sqrt(double %144) #3
  %146 = fneg double %145
  %147 = load double, double* %4, align 8
  %148 = fmul double 2.000000e+00, %147
  %149 = fdiv double %146, %148
  %150 = call i32 (i8*, ...) @printf(i8* getelementptr inbounds ([32 x i8], [32 x i8]* @.str.5, i64 0, i64 0), double %117, double %130, double %135, double %149)
  br label %151

151:                                              ; preds = %112, %83
  br label %152

152:                                              ; preds = %151, %63
  br label %153

153:                                              ; preds = %152, %22
  br label %154

154:                                              ; preds = %153
  %155 = load i32, i32* %3, align 4
  %156 = add nsw i32 %155, 1
  store i32 %156, i32* %3, align 4
  br label %8

157:                                              ; preds = %8
  ret i32 0
}

declare dso_local i32 @__isoc99_scanf(i8*, ...) #1

declare dso_local i32 @printf(i8*, ...) #1

; Function Attrs: nounwind
declare dso_local double @sqrt(double) #2


!llvm.module.flags = !{!0}
!llvm.ident = !{!1}

!0 = !{i32 1, !"wchar_size", i32 4}
!1 = !{!"clang version 10.0.0-4ubuntu1 "}
