; ModuleID = 'source-C-CXX/26/1535.c'
source_filename = "source-C-CXX/26/1535.c"
target datalayout = "e-m:e-p270:32:32-p271:32:32-p272:64:64-i64:64-f80:128-n8:16:32:64-S128"
target triple = "x86_64-pc-linux-gnu"

@.str = private unnamed_addr constant [3 x i8] c"%d\00", align 1
@.str.1 = private unnamed_addr constant [10 x i8] c"%lf%lf%lf\00", align 1
@.str.2 = private unnamed_addr constant [19 x i8] c"x1=%.5lf;x2=%.5lf\0A\00", align 1
@.str.3 = private unnamed_addr constant [13 x i8] c"x1=x2=%.5lf\0A\00", align 1
@.str.4 = private unnamed_addr constant [36 x i8] c"x1=0.00000+%.5lfi;x2=0.00000%.5lfi\0A\00", align 1
@.str.5 = private unnamed_addr constant [32 x i8] c"x1=%.5lf+%.5lfi;x2=%.5lf%.5lfi\0A\00", align 1

; Function Attrs: nofree nounwind sspstrong uwtable
define dso_local i32 @main() local_unnamed_addr #0 {
  %1 = alloca i32, align 4
  %2 = alloca double, align 8
  %3 = alloca double, align 8
  %4 = alloca double, align 8
  %5 = bitcast i32* %1 to i8*
  call void @llvm.lifetime.start.p0i8(i64 4, i8* nonnull %5) #4
  %6 = call i32 (i8*, ...) @__isoc99_scanf(i8* getelementptr inbounds ([3 x i8], [3 x i8]* @.str, i64 0, i64 0), i32* nonnull %1)
  %7 = bitcast double* %2 to i8*
  %8 = bitcast double* %3 to i8*
  %9 = bitcast double* %4 to i8*
  %10 = load i32, i32* %1, align 4, !tbaa !5
  %11 = icmp sgt i32 %10, 0
  br i1 %11, label %12, label %99

12:                                               ; preds = %0, %95
  %13 = phi i32 [ %96, %95 ], [ 0, %0 ]
  call void @llvm.lifetime.start.p0i8(i64 8, i8* nonnull %7) #4
  call void @llvm.lifetime.start.p0i8(i64 8, i8* nonnull %8) #4
  call void @llvm.lifetime.start.p0i8(i64 8, i8* nonnull %9) #4
  %14 = call i32 (i8*, ...) @__isoc99_scanf(i8* getelementptr inbounds ([10 x i8], [10 x i8]* @.str.1, i64 0, i64 0), double* nonnull %2, double* nonnull %3, double* nonnull %4)
  %15 = load double, double* %3, align 8, !tbaa !9
  %16 = fmul double %15, %15
  %17 = load double, double* %2, align 8, !tbaa !9
  %18 = fmul double %17, 4.000000e+00
  %19 = load double, double* %4, align 8, !tbaa !9
  %20 = fmul double %18, %19
  %21 = fcmp ogt double %16, %20
  br i1 %21, label %22, label %42

22:                                               ; preds = %12
  %23 = fsub double %16, %20
  %24 = call double @sqrt(double %23) #4
  %25 = fsub double %24, %15
  %26 = load double, double* %2, align 8, !tbaa !9
  %27 = fmul double %26, 2.000000e+00
  %28 = fdiv double %25, %27
  %29 = load double, double* %3, align 8, !tbaa !9
  %30 = fneg double %29
  %31 = fmul double %29, %29
  %32 = fmul double %26, 4.000000e+00
  %33 = load double, double* %4, align 8, !tbaa !9
  %34 = fmul double %32, %33
  %35 = fsub double %31, %34
  %36 = call double @sqrt(double %35) #4
  %37 = fsub double %30, %36
  %38 = load double, double* %2, align 8, !tbaa !9
  %39 = fmul double %38, 2.000000e+00
  %40 = fdiv double %37, %39
  %41 = call i32 (i8*, ...) @printf(i8* nonnull dereferenceable(1) getelementptr inbounds ([19 x i8], [19 x i8]* @.str.2, i64 0, i64 0), double %28, double %40)
  br label %95

42:                                               ; preds = %12
  %43 = fcmp oeq double %16, %20
  br i1 %43, label %44, label %52

44:                                               ; preds = %42
  %45 = fsub double %16, %20
  %46 = call double @sqrt(double %45) #4
  %47 = fsub double %46, %15
  %48 = load double, double* %2, align 8, !tbaa !9
  %49 = fmul double %48, 2.000000e+00
  %50 = fdiv double %47, %49
  %51 = call i32 (i8*, ...) @printf(i8* nonnull dereferenceable(1) getelementptr inbounds ([13 x i8], [13 x i8]* @.str.3, i64 0, i64 0), double %50)
  br label %95

52:                                               ; preds = %42
  %53 = fcmp oeq double %15, 0.000000e+00
  br i1 %53, label %54, label %72

54:                                               ; preds = %52
  %55 = fsub double %20, %16
  %56 = call double @sqrt(double %55) #4
  %57 = load double, double* %2, align 8, !tbaa !9
  %58 = fmul double %57, 2.000000e+00
  %59 = fdiv double %56, %58
  %60 = load double, double* %3, align 8, !tbaa !9
  %61 = fmul double %57, 4.000000e+00
  %62 = load double, double* %4, align 8, !tbaa !9
  %63 = fmul double %61, %62
  %64 = fmul double %60, %60
  %65 = fsub double %63, %64
  %66 = call double @sqrt(double %65) #4
  %67 = fneg double %66
  %68 = load double, double* %2, align 8, !tbaa !9
  %69 = fmul double %68, 2.000000e+00
  %70 = fdiv double %67, %69
  %71 = call i32 (i8*, ...) @printf(i8* nonnull dereferenceable(1) getelementptr inbounds ([36 x i8], [36 x i8]* @.str.4, i64 0, i64 0), double %59, double %70)
  br label %95

72:                                               ; preds = %52
  %73 = fneg double %15
  %74 = fmul double %17, 2.000000e+00
  %75 = fdiv double %73, %74
  %76 = fsub double %20, %16
  %77 = call double @sqrt(double %76) #4
  %78 = load double, double* %2, align 8, !tbaa !9
  %79 = fmul double %78, 2.000000e+00
  %80 = fdiv double %77, %79
  %81 = load double, double* %3, align 8, !tbaa !9
  %82 = fneg double %81
  %83 = fdiv double %82, %79
  %84 = fmul double %78, 4.000000e+00
  %85 = load double, double* %4, align 8, !tbaa !9
  %86 = fmul double %84, %85
  %87 = fmul double %81, %81
  %88 = fsub double %86, %87
  %89 = call double @sqrt(double %88) #4
  %90 = fneg double %89
  %91 = load double, double* %2, align 8, !tbaa !9
  %92 = fmul double %91, 2.000000e+00
  %93 = fdiv double %90, %92
  %94 = call i32 (i8*, ...) @printf(i8* nonnull dereferenceable(1) getelementptr inbounds ([32 x i8], [32 x i8]* @.str.5, i64 0, i64 0), double %75, double %80, double %83, double %93)
  br label %95

95:                                               ; preds = %44, %72, %54, %22
  call void @llvm.lifetime.end.p0i8(i64 8, i8* nonnull %9) #4
  call void @llvm.lifetime.end.p0i8(i64 8, i8* nonnull %8) #4
  call void @llvm.lifetime.end.p0i8(i64 8, i8* nonnull %7) #4
  %96 = add nuw nsw i32 %13, 1
  %97 = load i32, i32* %1, align 4, !tbaa !5
  %98 = icmp slt i32 %96, %97
  br i1 %98, label %12, label %99, !llvm.loop !11

99:                                               ; preds = %95, %0
  call void @llvm.lifetime.end.p0i8(i64 4, i8* nonnull %5) #4
  ret i32 0
}

; Function Attrs: argmemonly mustprogress nofree nosync nounwind willreturn
declare void @llvm.lifetime.start.p0i8(i64 immarg, i8* nocapture) #1

; Function Attrs: nofree nounwind
declare noundef i32 @__isoc99_scanf(i8* nocapture noundef readonly, ...) local_unnamed_addr #2

; Function Attrs: nofree nounwind
declare noundef i32 @printf(i8* nocapture noundef readonly, ...) local_unnamed_addr #2

; Function Attrs: mustprogress nofree nounwind willreturn
declare double @sqrt(double) local_unnamed_addr #3

; Function Attrs: argmemonly mustprogress nofree nosync nounwind willreturn
declare void @llvm.lifetime.end.p0i8(i64 immarg, i8* nocapture) #1


!llvm.module.flags = !{!0, !1, !2, !3}
!llvm.ident = !{!4}

!0 = !{i32 1, !"wchar_size", i32 4}
!1 = !{i32 7, !"PIC Level", i32 2}
!2 = !{i32 7, !"PIE Level", i32 2}
!3 = !{i32 7, !"uwtable", i32 1}
!4 = !{!"clang version 13.0.0"}
!5 = !{!6, !6, i64 0}
!6 = !{!"int", !7, i64 0}
!7 = !{!"omnipotent char", !8, i64 0}
!8 = !{!"Simple C/C++ TBAA"}
!9 = !{!10, !10, i64 0}
!10 = !{!"double", !7, i64 0}
!11 = distinct !{!11, !12}
!12 = !{!"llvm.loop.mustprogress"}
